target datalayout = "e-m:e-p270:32:32-p271:32:32-p272:64:64-i64:64-i128:128-f80:128-n8:16:32:64-S128"
target triple = "x86_64-pc-linux-gnu"

%struct.HashJoinState = type { %struct.JoinState, ptr, ptr, ptr, i32, i32, i32, ptr, ptr, ptr, ptr, ptr, ptr, i32, i8, i8 }
%struct.JoinState = type { %struct.PlanState, i32, i8, ptr }
%struct.PlanState = type { i32, ptr, ptr, ptr, ptr, ptr, ptr, ptr, ptr, ptr, ptr, ptr, ptr, ptr, ptr, ptr, ptr, ptr, i8, ptr, ptr, ptr, ptr, ptr, i8, i8, i8, i8, i8, i8, i8, i8 }
%struct.HashState = type { %struct.PlanState, ptr, ptr, ptr, i32, ptr, ptr, ptr }
%struct.HashJoinTableData = type { i32, i32, i32, i32, i32, %union.anon, i8, ptr, i32, i32, ptr, i32, i32, i32, i32, i8, double, double, double, ptr, ptr, i64, i64, i64, i64, i64, ptr, ptr, ptr, ptr, ptr, ptr, ptr, ptr, i64 }
%union.anon = type { ptr }

; Function Attrs: nounwind uwtable
define dso_local void @ExecReScanHashJoin(ptr noundef %0) #0 {
  %2 = alloca ptr, align 8
  %3 = alloca ptr, align 8
  %4 = alloca ptr, align 8
  %5 = alloca ptr, align 8
  store ptr %0, ptr %2, align 8
  call void @llvm.lifetime.start.p0(i64 8, ptr %3) #8
  %6 = load ptr, ptr %2, align 8
  %7 = getelementptr inbounds nuw %struct.PlanState, ptr %6, i32 0, i32 9
  %8 = load ptr, ptr %7, align 8
  store ptr %8, ptr %3, align 8
  call void @llvm.lifetime.start.p0(i64 8, ptr %4) #8
  %9 = load ptr, ptr %2, align 8
  %10 = getelementptr inbounds nuw %struct.PlanState, ptr %9, i32 0, i32 10
  %11 = load ptr, ptr %10, align 8
  store ptr %11, ptr %4, align 8
  %12 = load ptr, ptr %2, align 8
  %13 = getelementptr inbounds nuw %struct.HashJoinState, ptr %12, i32 0, i32 3
  %14 = load ptr, ptr %13, align 8
  %15 = icmp ne ptr %14, null
  br i1 %15, label %16, label %94

16:                                               ; preds = %1
  %17 = load ptr, ptr %2, align 8
  %18 = getelementptr inbounds nuw %struct.HashJoinState, ptr %17, i32 0, i32 3
  %19 = load ptr, ptr %18, align 8
  %20 = getelementptr inbounds nuw %struct.HashJoinTableData, ptr %19, i32 0, i32 11
  %21 = load i32, ptr %20, align 8
  %22 = icmp eq i32 %21, 1
  br i1 %22, label %23, label %48

23:                                               ; preds = %16
  %24 = load ptr, ptr %4, align 8
  %25 = getelementptr inbounds nuw %struct.PlanState, ptr %24, i32 0, i32 13
  %26 = load ptr, ptr %25, align 8
  %27 = icmp eq ptr %26, null
  br i1 %27, label %28, label %48

28:                                               ; preds = %23
  %29 = load ptr, ptr %2, align 8
  %30 = getelementptr inbounds nuw %struct.HashJoinState, ptr %29, i32 0, i32 10
  %31 = load ptr, ptr %30, align 8
  %32 = icmp ne ptr %31, null
  br i1 %32, label %39, label %33

33:                                               ; preds = %28
  %34 = load ptr, ptr %2, align 8
  %35 = getelementptr inbounds nuw %struct.HashJoinState, ptr %34, i32 0, i32 0
  %36 = getelementptr inbounds nuw %struct.JoinState, ptr %35, i32 0, i32 1
  %37 = load i32, ptr %36, align 8
  %38 = icmp eq i32 %37, 6
  br i1 %38, label %39, label %43

39:                                               ; preds = %33, %28
  %40 = load ptr, ptr %2, align 8
  %41 = getelementptr inbounds nuw %struct.HashJoinState, ptr %40, i32 0, i32 3
  %42 = load ptr, ptr %41, align 8
  call void @ExecHashTableResetMatchFlags(ptr noundef %42)
  br label %43

43:                                               ; preds = %39, %33
  %44 = load ptr, ptr %2, align 8
  %45 = getelementptr inbounds nuw %struct.HashJoinState, ptr %44, i32 0, i32 15
  store i8 0, ptr %45, align 1
  %46 = load ptr, ptr %2, align 8
  %47 = getelementptr inbounds nuw %struct.HashJoinState, ptr %46, i32 0, i32 13
  store i32 2, ptr %47, align 8
  br label %93

48:                                               ; preds = %23, %16
  call void @llvm.lifetime.start.p0(i64 8, ptr %5) #8
  %49 = load ptr, ptr %4, align 8
  store ptr %49, ptr %5, align 8
  %50 = load ptr, ptr %5, align 8
  %51 = getelementptr inbounds nuw %struct.HashState, ptr %50, i32 0, i32 0
  %52 = getelementptr inbounds nuw %struct.PlanState, ptr %51, i32 0, i32 5
  %53 = load ptr, ptr %52, align 8
  %54 = icmp ne ptr %53, null
  br i1 %54, label %55, label %64

55:                                               ; preds = %48
  %56 = load ptr, ptr %5, align 8
  %57 = getelementptr inbounds nuw %struct.HashState, ptr %56, i32 0, i32 6
  %58 = load ptr, ptr %57, align 8
  %59 = icmp ne ptr %58, null
  br i1 %59, label %64, label %60

60:                                               ; preds = %55
  %61 = call ptr @palloc0(i64 noundef 24)
  %62 = load ptr, ptr %5, align 8
  %63 = getelementptr inbounds nuw %struct.HashState, ptr %62, i32 0, i32 6
  store ptr %61, ptr %63, align 8
  br label %64

64:                                               ; preds = %60, %55, %48
  %65 = load ptr, ptr %5, align 8
  %66 = getelementptr inbounds nuw %struct.HashState, ptr %65, i32 0, i32 6
  %67 = load ptr, ptr %66, align 8
  %68 = icmp ne ptr %67, null
  br i1 %68, label %69, label %76

69:                                               ; preds = %64
  %70 = load ptr, ptr %5, align 8
  %71 = getelementptr inbounds nuw %struct.HashState, ptr %70, i32 0, i32 6
  %72 = load ptr, ptr %71, align 8
  %73 = load ptr, ptr %5, align 8
  %74 = getelementptr inbounds nuw %struct.HashState, ptr %73, i32 0, i32 1
  %75 = load ptr, ptr %74, align 8
  call void @ExecHashAccumInstrumentation(ptr noundef %72, ptr noundef %75)
  br label %76

76:                                               ; preds = %69, %64
  %77 = load ptr, ptr %5, align 8
  %78 = getelementptr inbounds nuw %struct.HashState, ptr %77, i32 0, i32 1
  store ptr null, ptr %78, align 8
  %79 = load ptr, ptr %2, align 8
  %80 = getelementptr inbounds nuw %struct.HashJoinState, ptr %79, i32 0, i32 3
  %81 = load ptr, ptr %80, align 8
  call void @ExecHashTableDestroy(ptr noundef %81)
  %82 = load ptr, ptr %2, align 8
  %83 = getelementptr inbounds nuw %struct.HashJoinState, ptr %82, i32 0, i32 3
  store ptr null, ptr %83, align 8
  %84 = load ptr, ptr %2, align 8
  %85 = getelementptr inbounds nuw %struct.HashJoinState, ptr %84, i32 0, i32 13
  store i32 1, ptr %85, align 8
  %86 = load ptr, ptr %4, align 8
  %87 = getelementptr inbounds nuw %struct.PlanState, ptr %86, i32 0, i32 13
  %88 = load ptr, ptr %87, align 8
  %89 = icmp eq ptr %88, null
  br i1 %89, label %90, label %92

90:                                               ; preds = %76
  %91 = load ptr, ptr %4, align 8
  call void @ExecReScan(ptr noundef %91)
  br label %92

92:                                               ; preds = %90, %76
  call void @llvm.lifetime.end.p0(i64 8, ptr %5) #8
  br label %93

93:                                               ; preds = %92, %43
  br label %94

94:                                               ; preds = %93, %1
  %95 = load ptr, ptr %2, align 8
  %96 = getelementptr inbounds nuw %struct.HashJoinState, ptr %95, i32 0, i32 4
  store i32 0, ptr %96, align 8
  %97 = load ptr, ptr %2, align 8
  %98 = getelementptr inbounds nuw %struct.HashJoinState, ptr %97, i32 0, i32 5
  store i32 0, ptr %98, align 4
  %99 = load ptr, ptr %2, align 8
  %100 = getelementptr inbounds nuw %struct.HashJoinState, ptr %99, i32 0, i32 6
  store i32 -1, ptr %100, align 8
  %101 = load ptr, ptr %2, align 8
  %102 = getelementptr inbounds nuw %struct.HashJoinState, ptr %101, i32 0, i32 7
  store ptr null, ptr %102, align 8
  %103 = load ptr, ptr %2, align 8
  %104 = getelementptr inbounds nuw %struct.HashJoinState, ptr %103, i32 0, i32 14
  store i8 0, ptr %104, align 4
  %105 = load ptr, ptr %2, align 8
  %106 = getelementptr inbounds nuw %struct.HashJoinState, ptr %105, i32 0, i32 12
  store ptr null, ptr %106, align 8
  %107 = load ptr, ptr %3, align 8
  %108 = getelementptr inbounds nuw %struct.PlanState, ptr %107, i32 0, i32 13
  %109 = load ptr, ptr %108, align 8
  %110 = icmp eq ptr %109, null
  br i1 %110, label %111, label %113

111:                                              ; preds = %94
  %112 = load ptr, ptr %3, align 8
  call void @ExecReScan(ptr noundef %112)
  br label %113

113:                                              ; preds = %111, %94
  call void @llvm.lifetime.end.p0(i64 8, ptr %4) #8
  call void @llvm.lifetime.end.p0(i64 8, ptr %3) #8
  ret void
}