; Function Attrs: nounwind uwtable
define dso_local void @ExecReScanHashJoin(ptr noundef captures(none) initializes((240, 252), (256, 264), (296, 304), (308, 309)) %0) local_unnamed_addr #0 {
  %2 = getelementptr inbounds nuw i8, ptr %0, i64 72
  %3 = load ptr, ptr %2, align 8
  %4 = getelementptr inbounds nuw i8, ptr %0, i64 80
  %5 = load ptr, ptr %4, align 8
  %6 = getelementptr inbounds nuw i8, ptr %0, i64 232
  %7 = load ptr, ptr %6, align 8
  %.not = icmp eq ptr %7, null
  br i1 %.not, label %45, label %8

8:                                                ; preds = %1
  %9 = getelementptr inbounds nuw i8, ptr %7, i64 64
  %10 = load i32, ptr %9, align 8
  %11 = icmp eq i32 %10, 1
  br i1 %11, label %12, label %27

12:                                               ; preds = %8
  %13 = getelementptr inbounds nuw i8, ptr %5, i64 104
  %14 = load ptr, ptr %13, align 8
  %15 = icmp eq ptr %14, null
  br i1 %15, label %16, label %27

16:                                               ; preds = %12
  %17 = getelementptr inbounds nuw i8, ptr %0, i64 280
  %18 = load ptr, ptr %17, align 8
  %.not35 = icmp eq ptr %18, null
  br i1 %.not35, label %19, label %23

19:                                               ; preds = %16
  %20 = getelementptr inbounds nuw i8, ptr %0, i64 200
  %21 = load i32, ptr %20, align 8
  %22 = icmp eq i32 %21, 6
  br i1 %22, label %23, label %24

23:                                               ; preds = %19, %16
  tail call void @ExecHashTableResetMatchFlags(ptr noundef nonnull %7) #6
  br label %24

24:                                               ; preds = %23, %19
  %25 = getelementptr inbounds nuw i8, ptr %0, i64 309
  store i8 0, ptr %25, align 1
  %26 = getelementptr inbounds nuw i8, ptr %0, i64 304
  store i32 2, ptr %26, align 8
  br label %45

27:                                               ; preds = %12, %8
  %28 = getelementptr inbounds nuw i8, ptr %5, i64 40
  %29 = load ptr, ptr %28, align 8
  %.not32 = icmp eq ptr %29, null
  %.phi.trans.insert = getelementptr inbounds nuw i8, ptr %5, i64 240
  %.pre = load ptr, ptr %.phi.trans.insert, align 8
  br i1 %.not32, label %._crit_edge, label %30

30:                                               ; preds = %27
  %.not33 = icmp eq ptr %.pre, null
  br i1 %.not33, label %31, label %.thread

31:                                               ; preds = %30
  %32 = tail call ptr @palloc0(i64 noundef 24) #6
  store ptr %32, ptr %.phi.trans.insert, align 8
  br label %._crit_edge

._crit_edge:                                      ; preds = %27, %31
  %33 = phi ptr [ %32, %31 ], [ %.pre, %27 ]
  %.not34 = icmp eq ptr %33, null
  br i1 %.not34, label %37, label %.thread

.thread:                                          ; preds = %30, %._crit_edge
  %34 = phi ptr [ %33, %._crit_edge ], [ %.pre, %30 ]
  %35 = getelementptr inbounds nuw i8, ptr %5, i64 200
  %36 = load ptr, ptr %35, align 8
  tail call void @ExecHashAccumInstrumentation(ptr noundef nonnull %34, ptr noundef %36) #6
  br label %37

37:                                               ; preds = %.thread, %._crit_edge
  %38 = getelementptr inbounds nuw i8, ptr %5, i64 200
  store ptr null, ptr %38, align 8
  %39 = load ptr, ptr %6, align 8
  tail call void @ExecHashTableDestroy(ptr noundef %39) #6
  store ptr null, ptr %6, align 8
  %40 = getelementptr inbounds nuw i8, ptr %0, i64 304
  store i32 1, ptr %40, align 8
  %41 = getelementptr inbounds nuw i8, ptr %5, i64 104
  %42 = load ptr, ptr %41, align 8
  %43 = icmp eq ptr %42, null
  br i1 %43, label %44, label %45

44:                                               ; preds = %37
  tail call void @ExecReScan(ptr noundef nonnull %5) #6
  br label %45

45:                                               ; preds = %37, %44, %24, %1
  %46 = getelementptr inbounds nuw i8, ptr %0, i64 240
  store i32 0, ptr %46, align 8
  %47 = getelementptr inbounds nuw i8, ptr %0, i64 244
  store i32 0, ptr %47, align 4
  %48 = getelementptr inbounds nuw i8, ptr %0, i64 248
  store i32 -1, ptr %48, align 8
  %49 = getelementptr inbounds nuw i8, ptr %0, i64 256
  store ptr null, ptr %49, align 8
  %50 = getelementptr inbounds nuw i8, ptr %0, i64 308
  store i8 0, ptr %50, align 4
  %51 = getelementptr inbounds nuw i8, ptr %0, i64 296
  store ptr null, ptr %51, align 8
  %52 = getelementptr inbounds nuw i8, ptr %3, i64 104
  %53 = load ptr, ptr %52, align 8
  %54 = icmp eq ptr %53, null
  br i1 %54, label %55, label %56

55:                                               ; preds = %45
  tail call void @ExecReScan(ptr noundef nonnull %3) #6
  br label %56

56:                                               ; preds = %55, %45
  ret void
}